; ModuleID = '36/1040.c'
source_filename = "36/1040.c"
target datalayout = "e-m:e-p270:32:32-p271:32:32-p272:64:64-i64:64-f80:128-n8:16:32:64-S128"
target triple = "x86_64-pc-linux-gnu"

@.str = private unnamed_addr constant [6 x i8] c"%s %s\00", align 1
@.str.1 = private unnamed_addr constant [4 x i8] c"NO\0A\00", align 1
@.str.2 = private unnamed_addr constant [5 x i8] c"YES\0A\00", align 1

; Function Attrs: noinline nounwind uwtable
define dso_local i32 @main() #0 {
  %1 = alloca i32, align 4
  %2 = alloca [80 x i8], align 16
  %3 = alloca [80 x i8], align 16
  %4 = alloca i8, align 1
  %5 = alloca i32, align 4
  %6 = alloca i32, align 4
  %7 = alloca i32, align 4
  %8 = alloca i32, align 4
  store i32 0, i32* %1, align 4
  %9 = getelementptr inbounds [80 x i8], [80 x i8]* %2, i64 0, i64 0
  %10 = getelementptr inbounds [80 x i8], [80 x i8]* %3, i64 0, i64 0
  %11 = call i32 (i8*, ...) @__isoc99_scanf(i8* getelementptr inbounds ([6 x i8], [6 x i8]* @.str, i64 0, i64 0), i8* %9, i8* %10)
  %12 = getelementptr inbounds [80 x i8], [80 x i8]* %2, i64 0, i64 0
  %13 = call i64 @strlen(i8* %12) #3
  %14 = trunc i64 %13 to i32
  store i32 %14, i32* %5, align 4
  %15 = getelementptr inbounds [80 x i8], [80 x i8]* %3, i64 0, i64 0
  %16 = call i64 @strlen(i8* %15) #3
  %17 = trunc i64 %16 to i32
  store i32 %17, i32* %6, align 4
  %18 = load i32, i32* %5, align 4
  %19 = load i32, i32* %6, align 4
  %20 = icmp ne i32 %18, %19
  br i1 %20, label %21, label %23

21:                                               ; preds = %0
  %22 = call i32 (i8*, ...) @printf(i8* getelementptr inbounds ([4 x i8], [4 x i8]* @.str.1, i64 0, i64 0))
  br label %111

23:                                               ; preds = %0
  store i32 0, i32* %7, align 4
  br label %24

24:                                               ; preds = %98, %23
  %25 = load i32, i32* %7, align 4
  %26 = load i32, i32* %5, align 4
  %27 = sub nsw i32 %26, 2
  %28 = icmp sle i32 %25, %27
  br i1 %28, label %29, label %101

29:                                               ; preds = %24
  %30 = load i32, i32* %7, align 4
  %31 = add nsw i32 %30, 1
  store i32 %31, i32* %8, align 4
  br label %32

32:                                               ; preds = %94, %29
  %33 = load i32, i32* %8, align 4
  %34 = load i32, i32* %5, align 4
  %35 = sub nsw i32 %34, 1
  %36 = icmp sle i32 %33, %35
  br i1 %36, label %37, label %97

37:                                               ; preds = %32
  %38 = load i32, i32* %7, align 4
  %39 = sext i32 %38 to i64
  %40 = getelementptr inbounds [80 x i8], [80 x i8]* %2, i64 0, i64 %39
  %41 = load i8, i8* %40, align 1
  %42 = sext i8 %41 to i32
  %43 = load i32, i32* %8, align 4
  %44 = sext i32 %43 to i64
  %45 = getelementptr inbounds [80 x i8], [80 x i8]* %2, i64 0, i64 %44
  %46 = load i8, i8* %45, align 1
  %47 = sext i8 %46 to i32
  %48 = icmp slt i32 %42, %47
  br i1 %48, label %49, label %65

49:                                               ; preds = %37
  %50 = load i32, i32* %7, align 4
  %51 = sext i32 %50 to i64
  %52 = getelementptr inbounds [80 x i8], [80 x i8]* %2, i64 0, i64 %51
  %53 = load i8, i8* %52, align 1
  store i8 %53, i8* %4, align 1
  %54 = load i32, i32* %8, align 4
  %55 = sext i32 %54 to i64
  %56 = getelementptr inbounds [80 x i8], [80 x i8]* %2, i64 0, i64 %55
  %57 = load i8, i8* %56, align 1
  %58 = load i32, i32* %7, align 4
  %59 = sext i32 %58 to i64
  %60 = getelementptr inbounds [80 x i8], [80 x i8]* %2, i64 0, i64 %59
  store i8 %57, i8* %60, align 1
  %61 = load i8, i8* %4, align 1
  %62 = load i32, i32* %8, align 4
  %63 = sext i32 %62 to i64
  %64 = getelementptr inbounds [80 x i8], [80 x i8]* %2, i64 0, i64 %63
  store i8 %61, i8* %64, align 1
  br label %65

65:                                               ; preds = %49, %37
  %66 = load i32, i32* %7, align 4
  %67 = sext i32 %66 to i64
  %68 = getelementptr inbounds [80 x i8], [80 x i8]* %3, i64 0, i64 %67
  %69 = load i8, i8* %68, align 1
  %70 = sext i8 %69 to i32
  %71 = load i32, i32* %8, align 4
  %72 = sext i32 %71 to i64
  %73 = getelementptr inbounds [80 x i8], [80 x i8]* %3, i64 0, i64 %72
  %74 = load i8, i8* %73, align 1
  %75 = sext i8 %74 to i32
  %76 = icmp slt i32 %70, %75
  br i1 %76, label %77, label %93

77:                                               ; preds = %65
  %78 = load i32, i32* %7, align 4
  %79 = sext i32 %78 to i64
  %80 = getelementptr inbounds [80 x i8], [80 x i8]* %3, i64 0, i64 %79
  %81 = load i8, i8* %80, align 1
  store i8 %81, i8* %4, align 1
  %82 = load i32, i32* %8, align 4
  %83 = sext i32 %82 to i64
  %84 = getelementptr inbounds [80 x i8], [80 x i8]* %3, i64 0, i64 %83
  %85 = load i8, i8* %84, align 1
  %86 = load i32, i32* %7, align 4
  %87 = sext i32 %86 to i64
  %88 = getelementptr inbounds [80 x i8], [80 x i8]* %3, i64 0, i64 %87
  store i8 %85, i8* %88, align 1
  %89 = load i8, i8* %4, align 1
  %90 = load i32, i32* %8, align 4
  %91 = sext i32 %90 to i64
  %92 = getelementptr inbounds [80 x i8], [80 x i8]* %3, i64 0, i64 %91
  store i8 %89, i8* %92, align 1
  br label %93

93:                                               ; preds = %77, %65
  br label %94

94:                                               ; preds = %93
  %95 = load i32, i32* %8, align 4
  %96 = add nsw i32 %95, 1
  store i32 %96, i32* %8, align 4
  br label %32

97:                                               ; preds = %32
  br label %98

98:                                               ; preds = %97
  %99 = load i32, i32* %7, align 4
  %100 = add nsw i32 %99, 1
  store i32 %100, i32* %7, align 4
  br label %24

101:                                              ; preds = %24
  %102 = getelementptr inbounds [80 x i8], [80 x i8]* %2, i64 0, i64 0
  %103 = getelementptr inbounds [80 x i8], [80 x i8]* %3, i64 0, i64 0
  %104 = call i32 @strcmp(i8* %102, i8* %103) #3
  %105 = icmp eq i32 %104, 0
  br i1 %105, label %106, label %108

106:                                              ; preds = %101
  %107 = call i32 (i8*, ...) @printf(i8* getelementptr inbounds ([5 x i8], [5 x i8]* @.str.2, i64 0, i64 0))
  br label %110

108:                                              ; preds = %101
  %109 = call i32 (i8*, ...) @printf(i8* getelementptr inbounds ([4 x i8], [4 x i8]* @.str.1, i64 0, i64 0))
  br label %110

110:                                              ; preds = %108, %106
  br label %111

111:                                              ; preds = %110, %21
  ret i32 0
}

declare dso_local i32 @__isoc99_scanf(i8*, ...) #1

; Function Attrs: nounwind readonly
declare dso_local i64 @strlen(i8*) #2

declare dso_local i32 @printf(i8*, ...) #1

; Function Attrs: nounwind readonly
declare dso_local i32 @strcmp(i8*, i8*) #2


!llvm.module.flags = !{!0}
!llvm.ident = !{!1}

!0 = !{i32 1, !"wchar_size", i32 4}
!1 = !{!"clang version 10.0.0-4ubuntu1 "}
